target datalayout = "e-m:e-p270:32:32-p271:32:32-p272:64:64-i64:64-i128:128-f80:128-n8:16:32:64-S128"
target triple = "x86_64-pc-linux-gnu"

@_ZN8Universe14_collectedHeapE = external global ptr, align 8
@_ZN8GCLocker15_jni_lock_countE = external global i32, align 4

; Function Attrs: mustprogress nounwind uwtable
define linkonce_odr hidden void @_ZN8GCLocker21verify_critical_countEv() #1 comdat align 2 {
  ret void
}

; Function Attrs: mustprogress nounwind uwtable
define linkonce_odr hidden noundef zeroext i1 @_ZN8GCLocker18is_active_internalEv() #1 comdat align 2 {
  call void @_ZN8GCLocker21verify_critical_countEv()
  %1 = load volatile i32, ptr @_ZN8GCLocker15_jni_lock_countE, align 4
  %2 = icmp sgt i32 %1, 0
  ret i1 %2
}

; Function Attrs: mustprogress nounwind uwtable
define linkonce_odr hidden noundef ptr @_ZN8Universe4heapEv() #1 comdat align 2 {
  %1 = load ptr, ptr @_ZN8Universe14_collectedHeapE, align 8
  ret ptr %1
}

; Function Attrs: mustprogress nounwind uwtable
define linkonce_odr hidden noundef zeroext i1 @_ZN8GCLocker9is_activeEv() #1 comdat align 2 {
  %1 = call noundef zeroext i1 @_ZN8GCLocker18is_active_internalEv()
  ret i1 %1
}

; Function Attrs: mustprogress nounwind uwtable
define hidden noundef zeroext i1 @_ZN20VM_GC_HeapInspection7collectEv(ptr noundef nonnull align 8 dereferenceable(56) %0) #1 align 2 {
  %2 = alloca i1, align 1
  %3 = alloca ptr, align 8
  store ptr %0, ptr %3, align 8
  %4 = call noundef zeroext i1 @_ZN8GCLocker9is_activeEv()
  br i1 %4, label %5, label %6

5:                                                ; preds = %1
  store i1 false, ptr %2, align 1
  br label %11

6:                                                ; preds = %1
  %7 = call noundef ptr @_ZN8Universe4heapEv()
  %8 = load ptr, ptr %7, align 8
  %9 = getelementptr inbounds ptr, ptr %8, i64 26
  %10 = load ptr, ptr %9, align 8
  call void %10(ptr noundef nonnull align 8 dereferenceable(104) %7, i32 noundef 6)
  store i1 true, ptr %2, align 1
  br label %11

11:                                               ; preds = %6, %5
  %12 = load i1, ptr %2, align 1
  ret i1 %12
}