; Function Attrs: mustprogress nounwind uwtable
define hidden noundef zeroext i1 @_ZN20VM_GC_HeapInspection7collectEv(ptr nocapture noundef nonnull readnone align 8 dereferenceable(56) %0) local_unnamed_addr #0 align 2 {
  %2 = load volatile i32, ptr @_ZN8GCLocker15_jni_lock_countE, align 4
  %3 = icmp slt i32 %2, 1
  br i1 %3, label %4, label %9

4:                                                ; preds = %1
  %5 = load ptr, ptr @_ZN8Universe14_collectedHeapE, align 8
  %6 = load ptr, ptr %5, align 8
  %7 = getelementptr inbounds i8, ptr %6, i64 208
  %8 = load ptr, ptr %7, align 8
  tail call void %8(ptr noundef nonnull align 8 dereferenceable(104) %5, i32 noundef 6) #12
  br label %9

9:                                                ; preds = %1, %4
  ret i1 %3
}